target datalayout = "e-m:e-p270:32:32-p271:32:32-p272:64:64-i64:64-i128:128-f80:128-n8:16:32:64-S128"
target triple = "x86_64-pc-linux-gnu"

%struct.pfcp_generic_ie = type { i16, i16, ptr, ptr, i32 }

@.str.2654 = private unnamed_addr constant [3 x i8] c"%s\00", align 1
@.str.2677 = private unnamed_addr constant [8 x i8] c"%s (%s)\00", align 1
@.str.2678 = private unnamed_addr constant [27 x i8] c"%s (Unknown enterprise %u)\00", align 1

; Function Attrs: null_pointer_is_valid sspstrong uwtable
define internal i32 @dissect_pfcp_generic_ie_cb(ptr noundef %0, ptr noundef %1, ptr noundef %2, ptr noundef %3, ptr noundef %4) #0 {
  %6 = alloca ptr, align 8
  %7 = alloca ptr, align 8
  %8 = alloca ptr, align 8
  %9 = alloca ptr, align 8
  %10 = alloca ptr, align 8
  %11 = alloca ptr, align 8
  %12 = alloca ptr, align 8
  %13 = alloca ptr, align 8
  store ptr %0, ptr %6, align 8
  store ptr %1, ptr %7, align 8
  store ptr %2, ptr %8, align 8
  store ptr %3, ptr %9, align 8
  store ptr %4, ptr %10, align 8
  call void @llvm.lifetime.start.p0(i64 8, ptr %11) #13
  %14 = load ptr, ptr %10, align 8
  store ptr %14, ptr %11, align 8
  call void @llvm.lifetime.start.p0(i64 8, ptr %12) #13
  %15 = load ptr, ptr %8, align 8
  %16 = call ptr @proto_tree_get_parent(ptr noundef %15)
  store ptr %16, ptr %12, align 8
  %17 = load ptr, ptr %11, align 8
  %18 = getelementptr inbounds nuw %struct.pfcp_generic_ie, ptr %17, i32 0, i32 4
  %19 = load i32, ptr %18, align 8
  %20 = icmp ne i32 %19, -1
  br i1 %20, label %21, label %27

21:                                               ; preds = %5
  %22 = load ptr, ptr %12, align 8
  %23 = load ptr, ptr %11, align 8
  %24 = getelementptr inbounds nuw %struct.pfcp_generic_ie, ptr %23, i32 0, i32 4
  %25 = load i32, ptr %24, align 8
  %26 = call ptr @proto_item_add_subtree(ptr noundef %22, i32 noundef %25)
  store ptr %26, ptr %8, align 8
  br label %27

27:                                               ; preds = %21, %5
  %28 = load ptr, ptr %11, align 8
  %29 = getelementptr inbounds nuw %struct.pfcp_generic_ie, ptr %28, i32 0, i32 2
  %30 = load ptr, ptr %29, align 8
  %31 = icmp ne ptr %30, null
  br i1 %31, label %32, label %68

32:                                               ; preds = %27
  %33 = load ptr, ptr %11, align 8
  %34 = getelementptr inbounds nuw %struct.pfcp_generic_ie, ptr %33, i32 0, i32 0
  %35 = load i16, ptr %34, align 8
  %36 = zext i16 %35 to i32
  %37 = icmp eq i32 %36, 0
  br i1 %37, label %38, label %43

38:                                               ; preds = %32
  %39 = load ptr, ptr %12, align 8
  %40 = load ptr, ptr %11, align 8
  %41 = getelementptr inbounds nuw %struct.pfcp_generic_ie, ptr %40, i32 0, i32 2
  %42 = load ptr, ptr %41, align 8
  call void (ptr, ptr, ...) @proto_item_set_text(ptr noundef %39, ptr noundef @.str.2654, ptr noundef %42)
  br label %67

43:                                               ; preds = %32
  call void @llvm.lifetime.start.p0(i64 8, ptr %13) #13
  %44 = load ptr, ptr %11, align 8
  %45 = getelementptr inbounds nuw %struct.pfcp_generic_ie, ptr %44, i32 0, i32 0
  %46 = load i16, ptr %45, align 8
  %47 = zext i16 %46 to i32
  %48 = call ptr @try_enterprises_lookup(i32 noundef %47)
  store ptr %48, ptr %13, align 8
  %49 = load ptr, ptr %13, align 8
  %50 = icmp ne ptr %49, null
  br i1 %50, label %51, label %57

51:                                               ; preds = %43
  %52 = load ptr, ptr %12, align 8
  %53 = load ptr, ptr %11, align 8
  %54 = getelementptr inbounds nuw %struct.pfcp_generic_ie, ptr %53, i32 0, i32 2
  %55 = load ptr, ptr %54, align 8
  %56 = load ptr, ptr %13, align 8
  call void (ptr, ptr, ...) @proto_item_set_text(ptr noundef %52, ptr noundef @.str.2677, ptr noundef %55, ptr noundef %56)
  br label %66

57:                                               ; preds = %43
  %58 = load ptr, ptr %12, align 8
  %59 = load ptr, ptr %11, align 8
  %60 = getelementptr inbounds nuw %struct.pfcp_generic_ie, ptr %59, i32 0, i32 2
  %61 = load ptr, ptr %60, align 8
  %62 = load ptr, ptr %11, align 8
  %63 = getelementptr inbounds nuw %struct.pfcp_generic_ie, ptr %62, i32 0, i32 0
  %64 = load i16, ptr %63, align 8
  %65 = zext i16 %64 to i32
  call void (ptr, ptr, ...) @proto_item_set_text(ptr noundef %58, ptr noundef @.str.2678, ptr noundef %61, i32 noundef %65)
  br label %66

66:                                               ; preds = %57, %51
  call void @llvm.lifetime.end.p0(i64 8, ptr %13) #13
  br label %67

67:                                               ; preds = %66, %38
  br label %68

68:                                               ; preds = %67, %27
  %69 = load ptr, ptr %11, align 8
  %70 = getelementptr inbounds nuw %struct.pfcp_generic_ie, ptr %69, i32 0, i32 3
  %71 = load ptr, ptr %70, align 8
  %72 = load ptr, ptr %6, align 8
  %73 = load ptr, ptr %7, align 8
  %74 = load ptr, ptr %8, align 8
  %75 = load ptr, ptr %9, align 8
  %76 = call i32 %71(ptr noundef %72, ptr noundef %73, ptr noundef %74, ptr noundef %75)
  call void @llvm.lifetime.end.p0(i64 8, ptr %12) #13
  call void @llvm.lifetime.end.p0(i64 8, ptr %11) #13
  ret i32 %76
}