; Function Attrs: null_pointer_is_valid sspstrong uwtable
define internal i32 @dissect_pfcp_generic_ie_cb(ptr noundef %0, ptr noundef %1, ptr noundef %2, ptr noundef %3, ptr noundef readonly captures(none) %4) #0 {
  %6 = tail call ptr @proto_tree_get_parent(ptr noundef %2)
  %7 = getelementptr inbounds nuw i8, ptr %4, i64 24
  %8 = load i32, ptr %7, align 8
  %.not = icmp eq i32 %8, -1
  br i1 %.not, label %11, label %9

9:                                                ; preds = %5
  %10 = tail call ptr @proto_item_add_subtree(ptr noundef %6, i32 noundef %8)
  br label %11

11:                                               ; preds = %9, %5
  %.0 = phi ptr [ %10, %9 ], [ %2, %5 ]
  %12 = getelementptr inbounds nuw i8, ptr %4, i64 8
  %13 = load ptr, ptr %12, align 8
  %.not26 = icmp eq ptr %13, null
  br i1 %.not26, label %26, label %14

14:                                               ; preds = %11
  %15 = load i16, ptr %4, align 8
  %16 = icmp eq i16 %15, 0
  br i1 %16, label %17, label %18

17:                                               ; preds = %14
  tail call void (ptr, ptr, ...) @proto_item_set_text(ptr noundef %6, ptr noundef nonnull @.str.2654, ptr noundef nonnull %13)
  br label %26

18:                                               ; preds = %14
  %19 = zext i16 %15 to i32
  %20 = tail call ptr @try_enterprises_lookup(i32 noundef %19)
  %.not27 = icmp eq ptr %20, null
  %21 = load ptr, ptr %12, align 8
  br i1 %.not27, label %23, label %22

22:                                               ; preds = %18
  tail call void (ptr, ptr, ...) @proto_item_set_text(ptr noundef %6, ptr noundef nonnull @.str.2677, ptr noundef %21, ptr noundef nonnull %20)
  br label %26

23:                                               ; preds = %18
  %24 = load i16, ptr %4, align 8
  %25 = zext i16 %24 to i32
  tail call void (ptr, ptr, ...) @proto_item_set_text(ptr noundef %6, ptr noundef nonnull @.str.2678, ptr noundef %21, i32 noundef %25)
  br label %26

26:                                               ; preds = %22, %23, %17, %11
  %27 = getelementptr inbounds nuw i8, ptr %4, i64 16
  %28 = load ptr, ptr %27, align 8
  %29 = tail call i32 %28(ptr noundef %0, ptr noundef %1, ptr noundef %.0, ptr noundef %3)
  ret i32 %29
}